(dp1
S'files'
p2
(dp3
S'topic_management_migrations_0001_initial'
p4
(dp5
S'index'
p6
(dp7
S'html_filename'
p8
S'topic_management_migrations_0001_initial.html'
p9
sS'name'
p10
S'topic_management/migrations/0001_initial'
p11
sS'nums'
p12
ccopy_reg
_reconstructor
p13
(ccoverage.results
Numbers
p14
c__builtin__
object
p15
NtRp16
(dp17
S'n_files'
p18
I1
sS'n_branches'
p19
I0
sS'n_statements'
p20
I30
sS'n_excluded'
p21
I0
sS'n_partial_branches'
p22
I0
sS'n_missing'
p23
I7
sS'n_missing_branches'
p24
I0
sbssS'hash'
p25
S'\xea\x11\x8e\xb4\xa0@\xcd-\xabS\xd8d*\tC\x17'
p26
ssS'topic_management_migrations_0006_auto__add_field_topic_topicinmeeting'
p27
(dp28
g6
(dp29
g8
S'topic_management_migrations_0006_auto__add_field_topic_topicinmeeting.html'
p30
sg10
S'topic_management/migrations/0006_auto__add_field_topic_topicinmeeting'
p31
sg12
g13
(g14
g15
NtRp32
(dp33
g18
I1
sg19
I0
sg20
I11
sg21
I0
sg22
I0
sg23
I1
sg24
I0
sbssg25
S'\x06\xfa\xa8\xedu\xa6\xad\x9d\x1b\xbb2\xf9\x87v\xc7a'
p34
ssS'topic_management_migrations_0013_auto__del_unique_topic_topic_slug'
p35
(dp36
g6
(dp37
g8
S'topic_management_migrations_0013_auto__del_unique_topic_topic_slug.html'
p38
sg10
S'topic_management/migrations/0013_auto__del_unique_topic_topic_slug'
p39
sg12
g13
(g14
g15
NtRp40
(dp41
g18
I1
sg19
I0
sg20
I11
sg21
I0
sg22
I0
sg23
I1
sg24
I0
sbssg25
S'\xf2\x12A\xac\x97\x8eR\xf5\xdbI\x82GY)\x0fh'
p42
ssS'topic_management_migrations_0011_update_meeting_management'
p43
(dp44
g6
(dp45
g8
S'topic_management_migrations_0011_update_meeting_management.html'
p46
sg10
S'topic_management/migrations/0011_update_meeting_management'
p47
sg12
g13
(g14
g15
NtRp48
(dp49
g18
I1
sg19
I0
sg20
I13
sg21
I0
sg22
I0
sg23
I1
sg24
I0
sbssg25
S'\xe3\xf6\xba\x0b!M#\xa6\xc86\x8f}\xba9\xf7e'
p50
ssS'topic_management_models'
p51
(dp52
g6
(dp53
g8
S'topic_management_models.html'
p54
sg10
S'topic_management/models'
p55
sg12
g13
(g14
g15
NtRp56
(dp57
g18
I1
sg19
I0
sg20
I48
sg21
I0
sg22
I0
sg23
I1
sg24
I0
sbssg25
S'?/\x14\xb4`\x97j\n\xdd\x94\x87\xe1\xe7\n\xc7\xf3'
p58
ssS'topic_management_urls'
p59
(dp60
g6
(dp61
S'html_filename'
p62
S'topic_management_urls.html'
p63
sS'name'
p64
S'topic_management/urls'
p65
sS'nums'
p66
g13
(g14
g15
NtRp67
(dp68
g18
I1
sg19
I0
sg20
I7
sg21
I0
sg22
I0
sg23
I7
sg24
I0
sbssg25
S'\x11\xc8\xa7\x1e\x8f@\xdc \xb5-\xc1|\xe1\x19b\xda'
p69
ssS'topic_management_migrations_0008_auto__del_field_topic_topicinmeeting'
p70
(dp71
g6
(dp72
g8
S'topic_management_migrations_0008_auto__del_field_topic_topicinmeeting.html'
p73
sg10
S'topic_management/migrations/0008_auto__del_field_topic_topicinmeeting'
p74
sg12
g13
(g14
g15
NtRp75
(dp76
g18
I1
sg19
I0
sg20
I12
sg21
I0
sg22
I0
sg23
I2
sg24
I0
sbssg25
S"\xd8'{\xbc>\xd2\x80\x8a\xec\xf2E\xc4\xc6.M\x1d"
p77
ssS'topic_management_resources'
p78
(dp79
g6
(dp80
g62
S'topic_management_resources.html'
p81
sg64
S'topic_management/resources'
p82
sg66
g13
(g14
g15
NtRp83
(dp84
g18
I1
sg19
I2
sg20
I11
sg21
I0
sg22
I0
sg23
I11
sg24
I2
sbssg25
S'\xd1\xe9M\x00\x1d\xd7\xe0\xc1)\x18Qdp?\xf0\xfa'
p85
ssS'topic_management_migrations_0010_auto__add_field_topic_topic_slug'
p86
(dp87
g6
(dp88
g8
S'topic_management_migrations_0010_auto__add_field_topic_topic_slug.html'
p89
sg10
S'topic_management/migrations/0010_auto__add_field_topic_topic_slug'
p90
sg12
g13
(g14
g15
NtRp91
(dp92
g18
I1
sg19
I0
sg20
I11
sg21
I0
sg22
I0
sg23
I1
sg24
I0
sbssg25
S'\xcf\t{1\x9d\x02\xdd<\x87\xd9\xa55\x14\xb6\xf2u'
p93
ssS'topic_management_context'
p94
(dp95
g6
(dp96
S'html_filename'
p97
S'topic_management_context.html'
p98
sS'name'
p99
S'topic_management/context'
p100
sS'nums'
p101
g13
(g14
g15
NtRp102
(dp103
g18
I1
sg19
I2
sg20
I16
sg21
I0
sg22
I0
sg23
I0
sg24
I0
sbssg25
S'\x88\xa5J\xb1\xc5\x0e\x18\xd9\x03\xa08\x13\x84X\r\xd1'
p104
ssS'topic_management_migrations_0005_auto__add_field_topic_scheduleorder'
p105
(dp106
g6
(dp107
g8
S'topic_management_migrations_0005_auto__add_field_topic_scheduleorder.html'
p108
sg10
S'topic_management/migrations/0005_auto__add_field_topic_scheduleorder'
p109
sg12
g13
(g14
g15
NtRp110
(dp111
g18
I1
sg19
I0
sg20
I11
sg21
I0
sg22
I0
sg23
I1
sg24
I0
sbssg25
S'\xb7MH^|eF F(\xec\xa0\xed\x82\x0er'
p112
ssS'topic_management_migrations_0014_auto__add_field_topic_datesetforreview'
p113
(dp114
g6
(dp115
g8
S'topic_management_migrations_0014_auto__add_field_topic_datesetforreview.html'
p116
sg10
S'topic_management/migrations/0014_auto__add_field_topic_datesetforreview'
p117
sg12
g13
(g14
g15
NtRp118
(dp119
g18
I1
sg19
I0
sg20
I11
sg21
I0
sg22
I0
sg23
I1
sg24
I0
sbssg25
S'\xa9\xc4\xec7\xcd\xa9X\xaeb\xb5<\xae\x8c\xe4\x9d\xce'
p120
ssS'topic_management_migrations_0004_auto__add_field_topic_category'
p121
(dp122
g6
(dp123
g8
S'topic_management_migrations_0004_auto__add_field_topic_category.html'
p124
sg10
S'topic_management/migrations/0004_auto__add_field_topic_category'
p125
sg12
g13
(g14
g15
NtRp126
(dp127
g18
I1
sg19
I0
sg20
I11
sg21
I0
sg22
I0
sg23
I1
sg24
I0
sbssg25
S'W9\x92{\x01\xc5\xfb\x10o\xe7\xc7;\xfb\x07\xa4\xd3'
p128
ssS'topic_management_migrations_0009_auto__chg_field_topic_meeting'
p129
(dp130
g6
(dp131
g8
S'topic_management_migrations_0009_auto__chg_field_topic_meeting.html'
p132
sg10
S'topic_management/migrations/0009_auto__chg_field_topic_meeting'
p133
sg12
g13
(g14
g15
NtRp134
(dp135
g18
I1
sg19
I0
sg20
I11
sg21
I0
sg22
I0
sg23
I1
sg24
I0
sbssg25
S'S\x05\xeb\x9cg\x9d\x9f\x89\xe1\xfe\x7f\x9e0D\n\xc4'
p136
ssS'topic_management_views'
p137
(dp138
g6
(dp139
g62
S'topic_management_views.html'
p140
sg64
S'topic_management/views'
p141
sg66
g13
(g14
g15
NtRp142
(dp143
g18
I1
sg19
I54
sg20
I194
sg21
I0
sg22
I0
sg23
I194
sg24
I54
sbssg25
S'|\xedn7fwO\x1db\x8e?j*\xdd\x85\xb9'
p144
ssS'topic_management___init__'
p145
(dp146
g6
(dp147
g8
S'topic_management___init__.html'
p148
sg10
S'topic_management/__init__'
p149
sg12
g13
(g14
g15
NtRp150
(dp151
g18
I1
sg19
I0
sg20
I0
sg21
I0
sg22
I0
sg23
I0
sg24
I0
sbssg25
S'\xe5P\x11)^\xf4>1D.\x0e\x0b\xa1\xf8[+'
p152
ssS'topic_management_admin'
p153
(dp154
g6
(dp155
g62
S'topic_management_admin.html'
p156
sg64
S'topic_management/admin'
p157
sg66
g13
(g14
g15
NtRp158
(dp159
g18
I1
sg19
I0
sg20
I5
sg21
I0
sg22
I0
sg23
I5
sg24
I0
sbssg25
S'#l\xea\xd9\xc2\x12 \xba\x9a7\x92\xf4M\x9b\xa0\x1c'
p160
ssS'topic_management_migrations_0007_auto__chg_field_topic_topicinmeeting'
p161
(dp162
g6
(dp163
g8
S'topic_management_migrations_0007_auto__chg_field_topic_topicinmeeting.html'
p164
sg10
S'topic_management/migrations/0007_auto__chg_field_topic_topicinmeeting'
p165
sg12
g13
(g14
g15
NtRp166
(dp167
g18
I1
sg19
I0
sg20
I14
sg21
I0
sg22
I0
sg23
I3
sg24
I0
sbssg25
S'K\x93o\xd8\x17\x0bo:\x1e\x9b\x9bZD\x81\x8d\xf4'
p168
ssS'topic_management_migrations_0015_auto__chg_field_topic_datesetforreview'
p169
(dp170
g6
(dp171
g8
S'topic_management_migrations_0015_auto__chg_field_topic_datesetforreview.html'
p172
sg10
S'topic_management/migrations/0015_auto__chg_field_topic_datesetforreview'
p173
sg12
g13
(g14
g15
NtRp174
(dp175
g18
I1
sg19
I0
sg20
I11
sg21
I0
sg22
I0
sg23
I1
sg24
I0
sbssg25
S'\xc4\x8d\x06X\x0b|\xf48\xfc\xbf,@\x1e\x0c\xd3\xf6'
p176
ssS'topic_management_migrations___init__'
p177
(dp178
g6
(dp179
g8
S'topic_management_migrations___init__.html'
p180
sg10
S'topic_management/migrations/__init__'
p181
sg12
g13
(g14
g15
NtRp182
(dp183
g18
I1
sg19
I0
sg20
I0
sg21
I0
sg22
I0
sg23
I0
sg24
I0
sbssg25
S'\xbf/\x83L\xc9/\xc0\x9a\xf0p\xa8h\xff\x10T5'
p184
ssS'topic_management_forms'
p185
(dp186
g6
(dp187
S'html_filename'
p188
S'topic_management_forms.html'
p189
sS'name'
p190
S'topic_management/forms'
p191
sS'nums'
p192
g13
(g14
g15
NtRp193
(dp194
g18
I1
sg19
I2
sg20
I14
sg21
I0
sg22
I0
sg23
I2
sg24
I2
sbssg25
S'\xc65\x7f\xf2\x9b:\xad\x08\x9d\xb9\x15\x1e\xbf\xf9\xc0\xa2'
p195
ssS'topic_management_migrations_0002_auto__add_field_topic_readyforreview__add_field_topic_presentationleng'
p196
(dp197
g6
(dp198
g8
S'topic_management_migrations_0002_auto__add_field_topic_readyforreview__add_field_topic_presentationleng.html'
p199
sg10
S'topic_management/migrations/0002_auto__add_field_topic_readyforreview__add_field_topic_presentationleng'
p200
sg12
g13
(g14
g15
NtRp201
(dp202
g18
I1
sg19
I0
sg20
I13
sg21
I0
sg22
I0
sg23
I2
sg24
I0
sbssg25
S'\n\x12\xabU\x1c\x0f\xe8\xd7_(\x90\xdbI\x14\xfeb'
p203
ssS'topic_management_migrations_0012_auto__add_unique_topic_topic_slug'
p204
(dp205
g6
(dp206
g8
S'topic_management_migrations_0012_auto__add_unique_topic_topic_slug.html'
p207
sg10
S'topic_management/migrations/0012_auto__add_unique_topic_topic_slug'
p208
sg12
g13
(g14
g15
NtRp209
(dp210
g18
I1
sg19
I0
sg20
I11
sg21
I0
sg22
I0
sg23
I1
sg24
I0
sbssg25
S'\xd2s\x81\xd6*G\x9d\xc1\xf1t\xae\xe3c\xf42m'
p211
ssS'topic_management_tests'
p212
(dp213
g6
(dp214
g188
S'topic_management_tests.html'
p215
sg190
S'topic_management/tests'
p216
sg192
g13
(g14
g15
NtRp217
(dp218
g18
I1
sg19
I2
sg20
I25
sg21
I0
sg22
I0
sg23
I3
sg24
I0
sbssg25
S'\x10^X\xa37\xe4\xcf\x94e\xc9\xc6]l\xfc\x9e\x89'
p219
ssS'topic_management_migrations_0003_auto__add_field_topic_supervisor_released'
p220
(dp221
g6
(dp222
g8
S'topic_management_migrations_0003_auto__add_field_topic_supervisor_released.html'
p223
sg10
S'topic_management/migrations/0003_auto__add_field_topic_supervisor_released'
p224
sg12
g13
(g14
g15
NtRp225
(dp226
g18
I1
sg19
I0
sg20
I11
sg21
I0
sg22
I0
sg23
I1
sg24
I0
sbssg25
S'\xac\x97d\xe8\x06v2\x82\xec\x1c\x14\x90\xc1\xeb\xbe\x81'
p227
sssS'version'
p228
S'3.6'
p229
sS'settings'
p230
S')\xf5\x81+\xd5x\xdcI \xd2\x9b\x95\x92\xdd\x93\x15'
p231
sS'format'
p232
I1
s.